; Function Attrs: mustprogress nofree nounwind willreturn memory(read, inaccessiblemem: none) uwtable
define internal noundef ptr @_ZNSt23_Sp_counted_ptr_inplaceIN8facebook5velox9functions12_GLOBAL__N_128ArrayIntersectExceptFunctionILb0EbEESaIvELN9__gnu_cxx12_Lock_policyE2EE14_M_get_deleterERKSt9type_info(ptr noundef nonnull readnone align 8 dereferenceable(72) %this, ptr noundef nonnull readonly align 8 dereferenceable(16) %__ti) unnamed_addr #13 align 2 {
entry:
  %_M_impl.i = getelementptr inbounds i8, ptr %this, i64 16
  %cmp = icmp eq ptr %__ti, @_ZZNSt19_Sp_make_shared_tag5_S_tiEvE5__tag
  br i1 %cmp, label %return, label %lor.lhs.false

lor.lhs.false:                                    ; preds = %entry
  %__name.i = getelementptr inbounds i8, ptr %__ti, i64 8
  %0 = load ptr, ptr %__name.i, align 8
  %cmp.i = icmp eq ptr %0, @_ZTSSt19_Sp_make_shared_tag
  br i1 %cmp.i, label %_ZNKSt9type_infoeqERKS_.exit.thread, label %if.end.i

if.end.i:                                         ; preds = %lor.lhs.false
  %1 = load i8, ptr %0, align 1
  %cmp4.not.i = icmp eq i8 %1, 42
  br i1 %cmp4.not.i, label %return, label %_ZNKSt9type_infoeqERKS_.exit

_ZNKSt9type_infoeqERKS_.exit:                     ; preds = %if.end.i
  %call6.i = tail call i32 @strcmp(ptr noundef nonnull dereferenceable(1) %0, ptr noundef nonnull dereferenceable(24) @_ZTSSt19_Sp_make_shared_tag) #28
  %call6.i.fr = freeze i32 %call6.i
  %cmp7.i = icmp eq i32 %call6.i.fr, 0
  br i1 %cmp7.i, label %_ZNKSt9type_infoeqERKS_.exit.thread, label %return

_ZNKSt9type_infoeqERKS_.exit.thread:              ; preds = %lor.lhs.false, %_ZNKSt9type_infoeqERKS_.exit
  br label %return

return:                                           ; preds = %if.end.i, %_ZNKSt9type_infoeqERKS_.exit.thread, %_ZNKSt9type_infoeqERKS_.exit, %entry
  %retval.0 = phi ptr [ %_M_impl.i, %entry ], [ %_M_impl.i, %_ZNKSt9type_infoeqERKS_.exit.thread ], [ null, %_ZNKSt9type_infoeqERKS_.exit ], [ null, %if.end.i ]
  ret ptr %retval.0
}